; Function Attrs: mustprogress nounwind uwtable
define void @_ZN14colvarbias_abfD0Ev(ptr noundef nonnull align 8 dereferenceable(2232) initializes((0, 8)) %0) unnamed_addr #1 align 2 {
  tail call void @_ZN14colvarbias_abfD2Ev(ptr noundef nonnull align 8 dereferenceable(2232) %0, ptr noundef nonnull @_ZTT14colvarbias_abf) #27
  %2 = getelementptr inbounds nuw i8, ptr %0, i64 2552
  tail call void @_ZN10colvardepsD2Ev(ptr noundef nonnull align 8 dereferenceable(120) %2) #27
  %3 = getelementptr inbounds nuw i8, ptr %0, i64 2232
  tail call void @_ZN11colvarparseD2Ev(ptr noundef nonnull align 8 dereferenceable(320) %3) #27
  tail call void @_ZdlPvm(ptr noundef nonnull %0, i64 noundef 2672) #29
  ret void
}